target datalayout = "e-m:e-p270:32:32-p271:32:32-p272:64:64-i64:64-i128:128-f80:128-n8:16:32:64-S128"
target triple = "x86_64-pc-linux-gnu"

; Function Attrs: inlinehint mustprogress nounwind uwtable
define linkonce_odr void @_ZSt4swapImENSt9enable_ifIXsr6__and_ISt6__not_ISt15__is_tuple_likeIT_EESt21is_move_constructibleIS3_ESt18is_move_assignableIS3_EEE5valueEvE4typeERS3_SC_(ptr noundef nonnull align 8 dereferenceable(8) %0, ptr noundef nonnull align 8 dereferenceable(8) %1) #8 comdat {
  %3 = alloca ptr, align 8
  %4 = alloca ptr, align 8
  %5 = alloca i64, align 8
  store ptr %0, ptr %3, align 8, !tbaa !13
  store ptr %1, ptr %4, align 8, !tbaa !13
  call void @llvm.lifetime.start.p0(i64 8, ptr %5) #3
  %6 = load ptr, ptr %3, align 8, !tbaa !13
  %7 = load i64, ptr %6, align 8, !tbaa !7
  store i64 %7, ptr %5, align 8, !tbaa !7
  %8 = load ptr, ptr %4, align 8, !tbaa !13
  %9 = load i64, ptr %8, align 8, !tbaa !7
  %10 = load ptr, ptr %3, align 8, !tbaa !13
  store i64 %9, ptr %10, align 8, !tbaa !7
  %11 = load i64, ptr %5, align 8, !tbaa !7
  %12 = load ptr, ptr %4, align 8, !tbaa !13
  store i64 %11, ptr %12, align 8, !tbaa !7
  call void @llvm.lifetime.end.p0(i64 8, ptr %5) #3
  ret void
}

; Function Attrs: mustprogress nounwind uwtable
define internal noundef i64 @_ZL17_trailing_zeros64m(i64 noundef %0) #4 {
  %2 = alloca i64, align 8
  %3 = alloca i64, align 8
  store i64 %0, ptr %2, align 8, !tbaa !7
  call void @llvm.lifetime.start.p0(i64 8, ptr %3) #3
  store i64 0, ptr %3, align 8, !tbaa !7
  br label %4

4:                                                ; preds = %14, %1
  %5 = load i64, ptr %2, align 8, !tbaa !7
  %6 = and i64 %5, 1
  %7 = icmp eq i64 0, %6
  br i1 %7, label %8, label %11

8:                                                ; preds = %4
  %9 = load i64, ptr %3, align 8, !tbaa !7
  %10 = icmp ult i64 %9, 64
  br label %11

11:                                               ; preds = %8, %4
  %12 = phi i1 [ false, %4 ], [ %10, %8 ]
  br i1 %12, label %13, label %19

13:                                               ; preds = %11
  br label %14

14:                                               ; preds = %13
  %15 = load i64, ptr %3, align 8, !tbaa !7
  %16 = add i64 %15, 1
  store i64 %16, ptr %3, align 8, !tbaa !7
  %17 = load i64, ptr %2, align 8, !tbaa !7
  %18 = lshr i64 %17, 1
  store i64 %18, ptr %2, align 8, !tbaa !7
  br label %4, !llvm.loop !9

19:                                               ; preds = %11
  %20 = load i64, ptr %3, align 8, !tbaa !7
  call void @llvm.lifetime.end.p0(i64 8, ptr %3) #3
  ret i64 %20
}

; Function Attrs: mustprogress uwtable
define hidden noundef i64 @_Z7u64_gcdmm(i64 noundef %0, i64 noundef %1) #6 {
  %3 = alloca i64, align 8
  %4 = alloca i64, align 8
  %5 = alloca i64, align 8
  %6 = alloca i64, align 8
  store i64 %0, ptr %4, align 8, !tbaa !7
  store i64 %1, ptr %5, align 8, !tbaa !7
  %7 = load i64, ptr %4, align 8, !tbaa !7
  %8 = icmp eq i64 %7, 0
  br i1 %8, label %9, label %11

9:                                                ; preds = %2
  %10 = load i64, ptr %5, align 8, !tbaa !7
  store i64 %10, ptr %3, align 8
  br label %52

11:                                               ; preds = %2
  %12 = load i64, ptr %5, align 8, !tbaa !7
  %13 = icmp eq i64 %12, 0
  br i1 %13, label %14, label %16

14:                                               ; preds = %11
  %15 = load i64, ptr %4, align 8, !tbaa !7
  store i64 %15, ptr %3, align 8
  br label %52

16:                                               ; preds = %11
  %17 = load i64, ptr %4, align 8, !tbaa !7
  %18 = icmp eq i64 %17, 1
  br i1 %18, label %22, label %19

19:                                               ; preds = %16
  %20 = load i64, ptr %5, align 8, !tbaa !7
  %21 = icmp eq i64 %20, 1
  br i1 %21, label %22, label %23

22:                                               ; preds = %19, %16
  store i64 1, ptr %3, align 8
  br label %52

23:                                               ; preds = %19
  call void @llvm.lifetime.start.p0(i64 8, ptr %6) #3
  %24 = load i64, ptr %4, align 8, !tbaa !7
  %25 = load i64, ptr %5, align 8, !tbaa !7
  %26 = or i64 %24, %25
  %27 = call noundef i64 @_ZL17_trailing_zeros64m(i64 noundef %26)
  store i64 %27, ptr %6, align 8, !tbaa !7
  %28 = load i64, ptr %4, align 8, !tbaa !7
  %29 = call noundef i64 @_ZL17_trailing_zeros64m(i64 noundef %28)
  %30 = load i64, ptr %4, align 8, !tbaa !7
  %31 = lshr i64 %30, %29
  store i64 %31, ptr %4, align 8, !tbaa !7
  br label %32

32:                                               ; preds = %45, %23
  %33 = load i64, ptr %5, align 8, !tbaa !7
  %34 = call noundef i64 @_ZL17_trailing_zeros64m(i64 noundef %33)
  %35 = load i64, ptr %5, align 8, !tbaa !7
  %36 = lshr i64 %35, %34
  store i64 %36, ptr %5, align 8, !tbaa !7
  %37 = load i64, ptr %4, align 8, !tbaa !7
  %38 = load i64, ptr %5, align 8, !tbaa !7
  %39 = icmp ugt i64 %37, %38
  br i1 %39, label %40, label %41

40:                                               ; preds = %32
  call void @_ZSt4swapImENSt9enable_ifIXsr6__and_ISt6__not_ISt15__is_tuple_likeIT_EESt21is_move_constructibleIS3_ESt18is_move_assignableIS3_EEE5valueEvE4typeERS3_SC_(ptr noundef nonnull align 8 dereferenceable(8) %4, ptr noundef nonnull align 8 dereferenceable(8) %5) #3
  br label %41

41:                                               ; preds = %40, %32
  %42 = load i64, ptr %4, align 8, !tbaa !7
  %43 = load i64, ptr %5, align 8, !tbaa !7
  %44 = sub i64 %43, %42
  store i64 %44, ptr %5, align 8, !tbaa !7
  br label %45

45:                                               ; preds = %41
  %46 = load i64, ptr %5, align 8, !tbaa !7
  %47 = icmp ne i64 %46, 0
  br i1 %47, label %32, label %48, !llvm.loop !12

48:                                               ; preds = %45
  %49 = load i64, ptr %4, align 8, !tbaa !7
  %50 = load i64, ptr %6, align 8, !tbaa !7
  %51 = shl i64 %49, %50
  store i64 %51, ptr %3, align 8
  call void @llvm.lifetime.end.p0(i64 8, ptr %6) #3
  br label %52

52:                                               ; preds = %48, %22, %14, %9
  %53 = load i64, ptr %3, align 8
  ret i64 %53
}