; Function Attrs: mustprogress nofree norecurse nosync nounwind willreturn memory(none) uwtable
define hidden noundef i64 @_Z7u64_gcdmm(i64 noundef %0, i64 noundef %1) local_unnamed_addr #3 {
  %3 = icmp eq i64 %0, 0
  br i1 %3, label %41, label %4

4:                                                ; preds = %2
  %5 = icmp eq i64 %1, 0
  br i1 %5, label %41, label %6

6:                                                ; preds = %4
  %7 = icmp eq i64 %0, 1
  %8 = icmp eq i64 %1, 1
  %or.cond = or i1 %7, %8
  br i1 %or.cond, label %41, label %9

9:                                                ; preds = %6
  %10 = or i64 %1, %0
  %11 = and i64 %10, 1
  %12 = icmp eq i64 %11, 0
  br i1 %12, label %.lr.ph.i, label %_ZL17_trailing_zeros64m.exit

.lr.ph.i:                                         ; preds = %9, %.lr.ph.i
  %.07.i = phi i64 [ %13, %.lr.ph.i ], [ 0, %9 ]
  %.056.i = phi i64 [ %14, %.lr.ph.i ], [ %10, %9 ]
  %13 = add nuw nsw i64 %.07.i, 1
  %14 = lshr exact i64 %.056.i, 1
  %15 = and i64 %.056.i, 2
  %16 = icmp eq i64 %15, 0
  %17 = icmp samesign ult i64 %.07.i, 63
  %18 = select i1 %16, i1 %17, i1 false
  br i1 %18, label %.lr.ph.i, label %_ZL17_trailing_zeros64m.exit, !llvm.loop !3

_ZL17_trailing_zeros64m.exit:                     ; preds = %.lr.ph.i, %9
  %.0.lcssa.i = phi i64 [ 0, %9 ], [ %13, %.lr.ph.i ]
  %19 = and i64 %0, 1
  %20 = icmp eq i64 %19, 0
  br i1 %20, label %.lr.ph.i6, label %_ZL17_trailing_zeros64m.exit9

.lr.ph.i6:                                        ; preds = %_ZL17_trailing_zeros64m.exit, %.lr.ph.i6
  %.07.i7 = phi i64 [ %21, %.lr.ph.i6 ], [ 0, %_ZL17_trailing_zeros64m.exit ]
  %.056.i8 = phi i64 [ %22, %.lr.ph.i6 ], [ %0, %_ZL17_trailing_zeros64m.exit ]
  %21 = add nuw nsw i64 %.07.i7, 1
  %22 = lshr exact i64 %.056.i8, 1
  %23 = and i64 %.056.i8, 2
  %24 = icmp eq i64 %23, 0
  %25 = icmp samesign ult i64 %.07.i7, 63
  %26 = select i1 %24, i1 %25, i1 false
  br i1 %26, label %.lr.ph.i6, label %_ZL17_trailing_zeros64m.exit9, !llvm.loop !3

_ZL17_trailing_zeros64m.exit9:                    ; preds = %.lr.ph.i6, %_ZL17_trailing_zeros64m.exit
  %.0.lcssa.i5 = phi i64 [ 0, %_ZL17_trailing_zeros64m.exit ], [ %21, %.lr.ph.i6 ]
  %27 = lshr i64 %0, %.0.lcssa.i5
  br label %28

28:                                               ; preds = %_ZL17_trailing_zeros64m.exit14, %_ZL17_trailing_zeros64m.exit9
  %.025 = phi i64 [ %27, %_ZL17_trailing_zeros64m.exit9 ], [ %spec.select, %_ZL17_trailing_zeros64m.exit14 ]
  %.024 = phi i64 [ %1, %_ZL17_trailing_zeros64m.exit9 ], [ %38, %_ZL17_trailing_zeros64m.exit14 ]
  %29 = and i64 %.024, 1
  %30 = icmp eq i64 %29, 0
  br i1 %30, label %.lr.ph.i11, label %_ZL17_trailing_zeros64m.exit14

.lr.ph.i11:                                       ; preds = %28, %.lr.ph.i11
  %.07.i12 = phi i64 [ %31, %.lr.ph.i11 ], [ 0, %28 ]
  %.056.i13 = phi i64 [ %32, %.lr.ph.i11 ], [ %.024, %28 ]
  %31 = add nuw nsw i64 %.07.i12, 1
  %32 = lshr exact i64 %.056.i13, 1
  %33 = and i64 %.056.i13, 2
  %34 = icmp eq i64 %33, 0
  %35 = icmp samesign ult i64 %.07.i12, 63
  %36 = select i1 %34, i1 %35, i1 false
  br i1 %36, label %.lr.ph.i11, label %_ZL17_trailing_zeros64m.exit14, !llvm.loop !3

_ZL17_trailing_zeros64m.exit14:                   ; preds = %.lr.ph.i11, %28
  %.0.lcssa.i10 = phi i64 [ 0, %28 ], [ %31, %.lr.ph.i11 ]
  %37 = lshr i64 %.024, %.0.lcssa.i10
  %spec.select = tail call i64 @llvm.umin.i64(i64 %.025, i64 %37)
  %spec.select27 = tail call i64 @llvm.umax.i64(i64 %.025, i64 %37)
  %38 = sub i64 %spec.select27, %spec.select
  %.not = icmp eq i64 %.025, %37
  br i1 %.not, label %39, label %28, !llvm.loop !6

39:                                               ; preds = %_ZL17_trailing_zeros64m.exit14
  %40 = shl i64 %spec.select, %.0.lcssa.i
  br label %41

41:                                               ; preds = %6, %4, %2, %39
  %.0 = phi i64 [ %40, %39 ], [ %1, %2 ], [ %0, %4 ], [ 1, %6 ]
  ret i64 %.0
}